; Function Attrs: nounwind uwtable
define noalias noundef ptr @Gia_ManEdgeToArray(ptr noundef readonly captures(none) %0) local_unnamed_addr #0 {
  %2 = tail call noalias dereferenceable_or_null(16) ptr @malloc(i64 noundef 16) #20
  %3 = getelementptr inbounds nuw i8, ptr %2, i64 4
  store i32 0, ptr %3, align 4, !tbaa !31
  store i32 1000, ptr %2, align 8, !tbaa !30
  %4 = tail call noalias dereferenceable_or_null(4000) ptr @malloc(i64 noundef 4000) #20
  %5 = getelementptr inbounds nuw i8, ptr %2, i64 8
  store ptr %4, ptr %5, align 8, !tbaa !8
  %6 = getelementptr i8, ptr %0, i64 24
  %.val25 = load i32, ptr %6, align 8, !tbaa !12
  %7 = icmp sgt i32 %.val25, 0
  br i1 %7, label %.lr.ph, label %._crit_edge

.lr.ph:                                           ; preds = %1
  %8 = getelementptr inbounds nuw i8, ptr %0, i64 352
  %9 = getelementptr inbounds nuw i8, ptr %0, i64 360
  br label %10

10:                                               ; preds = %.lr.ph, %28
  %indvars.iv = phi i64 [ 0, %.lr.ph ], [ %indvars.iv.next, %28 ]
  %11 = load ptr, ptr %8, align 8, !tbaa !32
  %12 = getelementptr i8, ptr %11, i64 8
  %.val24 = load ptr, ptr %12, align 8, !tbaa !8
  %13 = getelementptr inbounds nuw i32, ptr %.val24, i64 %indvars.iv
  %14 = load i32, ptr %13, align 4, !tbaa !34
  %.not = icmp ne i32 %14, 0
  %15 = sext i32 %14 to i64
  %16 = icmp sgt i64 %indvars.iv, %15
  %or.cond = and i1 %.not, %16
  br i1 %or.cond, label %17, label %19

17:                                               ; preds = %10
  %18 = trunc nuw nsw i64 %indvars.iv to i32
  tail call fastcc void @Vec_IntPushTwo(ptr noundef nonnull %2, i32 noundef %14, i32 noundef %18)
  br label %19

19:                                               ; preds = %17, %10
  %20 = load ptr, ptr %9, align 8, !tbaa !33
  %21 = getelementptr i8, ptr %20, i64 8
  %.val23 = load ptr, ptr %21, align 8, !tbaa !8
  %22 = getelementptr inbounds nuw i32, ptr %.val23, i64 %indvars.iv
  %23 = load i32, ptr %22, align 4, !tbaa !34
  %.not21 = icmp ne i32 %23, 0
  %24 = sext i32 %23 to i64
  %25 = icmp sgt i64 %indvars.iv, %24
  %or.cond22 = and i1 %.not21, %25
  br i1 %or.cond22, label %26, label %28

26:                                               ; preds = %19
  %27 = trunc nuw nsw i64 %indvars.iv to i32
  tail call fastcc void @Vec_IntPushTwo(ptr noundef nonnull %2, i32 noundef %23, i32 noundef %27)
  br label %28

28:                                               ; preds = %19, %26
  %indvars.iv.next = add nuw nsw i64 %indvars.iv, 1
  %.val = load i32, ptr %6, align 8, !tbaa !12
  %29 = sext i32 %.val to i64
  %30 = icmp slt i64 %indvars.iv.next, %29
  br i1 %30, label %10, label %._crit_edge, !llvm.loop !37

._crit_edge:                                      ; preds = %28, %1
  ret ptr %2
}